target datalayout = "e-m:e-p270:32:32-p271:32:32-p272:64:64-i64:64-i128:128-f80:128-n8:16:32:64-S128"
target triple = "x86_64-pc-linux-gnu"

%struct.pcre2_real_code_8 = type { %struct.pcre2_memctl, ptr, ptr, [32 x i8], i64, i32, i32, i32, i32, i32, i32, i32, i32, i32, i32, i16, i16, i16, i16, i16, i16, i16, i16 }
%struct.pcre2_memctl = type { ptr, ptr, ptr }
%struct.pcre2_callout_enumerate_block_8 = type { i32, i64, i64, i32, i64, i64, ptr }

@_pcre2_OP_lengths_8 = external constant [0 x i8], align 1
@_pcre2_utf8_table4 = external constant [0 x i8], align 1

; Function Attrs: nounwind uwtable
define i32 @php_pcre2_callout_enumerate(ptr noundef %0, ptr noundef %1, ptr noundef %2) #0 {
  %4 = alloca i32, align 4
  %5 = alloca ptr, align 8
  %6 = alloca ptr, align 8
  %7 = alloca ptr, align 8
  %8 = alloca ptr, align 8
  %9 = alloca %struct.pcre2_callout_enumerate_block_8, align 8
  %10 = alloca ptr, align 8
  %11 = alloca i32, align 4
  %12 = alloca i32, align 4
  store ptr %0, ptr %5, align 8
  store ptr %1, ptr %6, align 8
  store ptr %2, ptr %7, align 8
  %13 = load ptr, ptr %5, align 8
  store ptr %13, ptr %8, align 8
  %14 = load ptr, ptr %8, align 8
  %15 = icmp eq ptr %14, null
  br i1 %15, label %16, label %17

16:                                               ; preds = %3
  store i32 -51, ptr %4, align 4
  br label %281

17:                                               ; preds = %3
  %18 = load ptr, ptr %8, align 8
  %19 = getelementptr inbounds %struct.pcre2_real_code_8, ptr %18, i32 0, i32 7
  %20 = load i32, ptr %19, align 8
  %21 = and i32 %20, 524288
  %22 = icmp ne i32 %21, 0
  %23 = zext i1 %22 to i32
  store i32 %23, ptr %11, align 4
  %24 = load ptr, ptr %8, align 8
  %25 = getelementptr inbounds %struct.pcre2_real_code_8, ptr %24, i32 0, i32 5
  %26 = load i32, ptr %25, align 8
  %27 = zext i32 %26 to i64
  %28 = icmp ne i64 %27, 1346589253
  br i1 %28, label %29, label %30

29:                                               ; preds = %17
  store i32 -31, ptr %4, align 4
  br label %281

30:                                               ; preds = %17
  %31 = load ptr, ptr %8, align 8
  %32 = getelementptr inbounds %struct.pcre2_real_code_8, ptr %31, i32 0, i32 9
  %33 = load i32, ptr %32, align 8
  %34 = and i32 %33, 1
  %35 = icmp eq i32 %34, 0
  br i1 %35, label %36, label %37

36:                                               ; preds = %30
  store i32 -32, ptr %4, align 4
  br label %281

37:                                               ; preds = %30
  %38 = getelementptr inbounds %struct.pcre2_callout_enumerate_block_8, ptr %9, i32 0, i32 0
  store i32 0, ptr %38, align 8
  %39 = load ptr, ptr %8, align 8
  %40 = getelementptr inbounds i8, ptr %39, i64 136
  %41 = load ptr, ptr %8, align 8
  %42 = getelementptr inbounds %struct.pcre2_real_code_8, ptr %41, i32 0, i32 22
  %43 = load i16, ptr %42, align 2
  %44 = zext i16 %43 to i32
  %45 = load ptr, ptr %8, align 8
  %46 = getelementptr inbounds %struct.pcre2_real_code_8, ptr %45, i32 0, i32 21
  %47 = load i16, ptr %46, align 4
  %48 = zext i16 %47 to i32
  %49 = mul nsw i32 %44, %48
  %50 = sext i32 %49 to i64
  %51 = getelementptr inbounds i8, ptr %40, i64 %50
  store ptr %51, ptr %10, align 8
  br label %52

52:                                               ; preds = %280, %37
  %53 = load ptr, ptr %10, align 8
  %54 = load i8, ptr %53, align 1
  %55 = zext i8 %54 to i32
  switch i32 %55, label %270 [
    i32 0, label %56
    i32 29, label %57
    i32 30, label %57
    i32 31, label %57
    i32 32, label %57
    i32 33, label %57
    i32 34, label %57
    i32 35, label %57
    i32 36, label %57
    i32 37, label %57
    i32 38, label %57
    i32 39, label %57
    i32 40, label %57
    i32 41, label %57
    i32 42, label %57
    i32 43, label %57
    i32 44, label %57
    i32 45, label %57
    i32 46, label %57
    i32 47, label %57
    i32 48, label %57
    i32 49, label %57
    i32 50, label %57
    i32 51, label %57
    i32 52, label %57
    i32 53, label %57
    i32 54, label %57
    i32 55, label %57
    i32 56, label %57
    i32 57, label %57
    i32 58, label %57
    i32 59, label %57
    i32 60, label %57
    i32 61, label %57
    i32 62, label %57
    i32 63, label %57
    i32 64, label %57
    i32 65, label %57
    i32 66, label %57
    i32 67, label %57
    i32 68, label %57
    i32 69, label %57
    i32 70, label %57
    i32 71, label %57
    i32 72, label %57
    i32 73, label %57
    i32 74, label %57
    i32 75, label %57
    i32 76, label %57
    i32 77, label %57
    i32 78, label %57
    i32 79, label %57
    i32 80, label %57
    i32 81, label %57
    i32 82, label %57
    i32 83, label %57
    i32 84, label %57
    i32 85, label %89
    i32 86, label %89
    i32 87, label %89
    i32 88, label %89
    i32 89, label %89
    i32 90, label %89
    i32 91, label %89
    i32 92, label %89
    i32 93, label %89
    i32 94, label %89
    i32 95, label %89
    i32 96, label %89
    i32 97, label %89
    i32 112, label %114
    i32 154, label %128
    i32 162, label %128
    i32 156, label %128
    i32 158, label %128
    i32 160, label %128
    i32 118, label %143
    i32 119, label %193
  ]

56:                                               ; preds = %52
  store i32 0, ptr %4, align 4
  br label %281

57:                                               ; preds = %52, %52, %52, %52, %52, %52, %52, %52, %52, %52, %52, %52, %52, %52, %52, %52, %52, %52, %52, %52, %52, %52, %52, %52, %52, %52, %52, %52, %52, %52, %52, %52, %52, %52, %52, %52, %52, %52, %52, %52, %52, %52, %52, %52, %52, %52, %52, %52, %52, %52, %52, %52, %52, %52, %52, %52
  %58 = load ptr, ptr %10, align 8
  %59 = load i8, ptr %58, align 1
  %60 = zext i8 %59 to i64
  %61 = getelementptr inbounds [0 x i8], ptr @_pcre2_OP_lengths_8, i64 0, i64 %60
  %62 = load i8, ptr %61, align 1
  %63 = zext i8 %62 to i32
  %64 = load ptr, ptr %10, align 8
  %65 = sext i32 %63 to i64
  %66 = getelementptr inbounds i8, ptr %64, i64 %65
  store ptr %66, ptr %10, align 8
  %67 = load i32, ptr %11, align 4
  %68 = icmp ne i32 %67, 0
  br i1 %68, label %69, label %88

69:                                               ; preds = %57
  %70 = load ptr, ptr %10, align 8
  %71 = getelementptr inbounds i8, ptr %70, i64 -1
  %72 = load i8, ptr %71, align 1
  %73 = zext i8 %72 to i32
  %74 = icmp sge i32 %73, 192
  br i1 %74, label %75, label %88

75:                                               ; preds = %69
  %76 = load ptr, ptr %10, align 8
  %77 = getelementptr inbounds i8, ptr %76, i64 -1
  %78 = load i8, ptr %77, align 1
  %79 = zext i8 %78 to i32
  %80 = and i32 %79, 63
  %81 = zext i32 %80 to i64
  %82 = getelementptr inbounds [0 x i8], ptr @_pcre2_utf8_table4, i64 0, i64 %81
  %83 = load i8, ptr %82, align 1
  %84 = zext i8 %83 to i32
  %85 = load ptr, ptr %10, align 8
  %86 = sext i32 %84 to i64
  %87 = getelementptr inbounds i8, ptr %85, i64 %86
  store ptr %87, ptr %10, align 8
  br label %88

88:                                               ; preds = %75, %69, %57
  br label %280

89:                                               ; preds = %52, %52, %52, %52, %52, %52, %52, %52, %52, %52, %52, %52, %52
  %90 = load ptr, ptr %10, align 8
  %91 = load i8, ptr %90, align 1
  %92 = zext i8 %91 to i64
  %93 = getelementptr inbounds [0 x i8], ptr @_pcre2_OP_lengths_8, i64 0, i64 %92
  %94 = load i8, ptr %93, align 1
  %95 = zext i8 %94 to i32
  %96 = load ptr, ptr %10, align 8
  %97 = sext i32 %95 to i64
  %98 = getelementptr inbounds i8, ptr %96, i64 %97
  store ptr %98, ptr %10, align 8
  %99 = load ptr, ptr %10, align 8
  %100 = getelementptr inbounds i8, ptr %99, i64 -1
  %101 = load i8, ptr %100, align 1
  %102 = zext i8 %101 to i32
  %103 = icmp eq i32 %102, 16
  br i1 %103, label %110, label %104

104:                                              ; preds = %89
  %105 = load ptr, ptr %10, align 8
  %106 = getelementptr inbounds i8, ptr %105, i64 -1
  %107 = load i8, ptr %106, align 1
  %108 = zext i8 %107 to i32
  %109 = icmp eq i32 %108, 15
  br i1 %109, label %110, label %113

110:                                              ; preds = %104, %89
  %111 = load ptr, ptr %10, align 8
  %112 = getelementptr inbounds i8, ptr %111, i64 2
  store ptr %112, ptr %10, align 8
  br label %113

113:                                              ; preds = %110, %104
  br label %280

114:                                              ; preds = %52
  %115 = load ptr, ptr %10, align 8
  %116 = getelementptr inbounds i8, ptr %115, i64 1
  %117 = load i8, ptr %116, align 1
  %118 = zext i8 %117 to i32
  %119 = shl i32 %118, 8
  %120 = load ptr, ptr %10, align 8
  %121 = getelementptr inbounds i8, ptr %120, i64 2
  %122 = load i8, ptr %121, align 1
  %123 = zext i8 %122 to i32
  %124 = or i32 %119, %123
  %125 = load ptr, ptr %10, align 8
  %126 = zext i32 %124 to i64
  %127 = getelementptr inbounds i8, ptr %125, i64 %126
  store ptr %127, ptr %10, align 8
  br label %280

128:                                              ; preds = %52, %52, %52, %52, %52
  %129 = load ptr, ptr %10, align 8
  %130 = load i8, ptr %129, align 1
  %131 = zext i8 %130 to i64
  %132 = getelementptr inbounds [0 x i8], ptr @_pcre2_OP_lengths_8, i64 0, i64 %131
  %133 = load i8, ptr %132, align 1
  %134 = zext i8 %133 to i32
  %135 = load ptr, ptr %10, align 8
  %136 = getelementptr inbounds i8, ptr %135, i64 1
  %137 = load i8, ptr %136, align 1
  %138 = zext i8 %137 to i32
  %139 = add nsw i32 %134, %138
  %140 = load ptr, ptr %10, align 8
  %141 = sext i32 %139 to i64
  %142 = getelementptr inbounds i8, ptr %140, i64 %141
  store ptr %142, ptr %10, align 8
  br label %280

143:                                              ; preds = %52
  %144 = load ptr, ptr %10, align 8
  %145 = getelementptr inbounds i8, ptr %144, i64 1
  %146 = load i8, ptr %145, align 1
  %147 = zext i8 %146 to i32
  %148 = shl i32 %147, 8
  %149 = load ptr, ptr %10, align 8
  %150 = getelementptr inbounds i8, ptr %149, i64 2
  %151 = load i8, ptr %150, align 1
  %152 = zext i8 %151 to i32
  %153 = or i32 %148, %152
  %154 = zext i32 %153 to i64
  %155 = getelementptr inbounds %struct.pcre2_callout_enumerate_block_8, ptr %9, i32 0, i32 1
  store i64 %154, ptr %155, align 8
  %156 = load ptr, ptr %10, align 8
  %157 = getelementptr inbounds i8, ptr %156, i64 3
  %158 = load i8, ptr %157, align 1
  %159 = zext i8 %158 to i32
  %160 = shl i32 %159, 8
  %161 = load ptr, ptr %10, align 8
  %162 = getelementptr inbounds i8, ptr %161, i64 4
  %163 = load i8, ptr %162, align 1
  %164 = zext i8 %163 to i32
  %165 = or i32 %160, %164
  %166 = zext i32 %165 to i64
  %167 = getelementptr inbounds %struct.pcre2_callout_enumerate_block_8, ptr %9, i32 0, i32 2
  store i64 %166, ptr %167, align 8
  %168 = load ptr, ptr %10, align 8
  %169 = getelementptr inbounds i8, ptr %168, i64 5
  %170 = load i8, ptr %169, align 1
  %171 = zext i8 %170 to i32
  %172 = getelementptr inbounds %struct.pcre2_callout_enumerate_block_8, ptr %9, i32 0, i32 3
  store i32 %171, ptr %172, align 8
  %173 = getelementptr inbounds %struct.pcre2_callout_enumerate_block_8, ptr %9, i32 0, i32 4
  store i64 0, ptr %173, align 8
  %174 = getelementptr inbounds %struct.pcre2_callout_enumerate_block_8, ptr %9, i32 0, i32 5
  store i64 0, ptr %174, align 8
  %175 = getelementptr inbounds %struct.pcre2_callout_enumerate_block_8, ptr %9, i32 0, i32 6
  store ptr null, ptr %175, align 8
  %176 = load ptr, ptr %6, align 8
  %177 = load ptr, ptr %7, align 8
  %178 = call i32 %176(ptr noundef %9, ptr noundef %177)
  store i32 %178, ptr %12, align 4
  %179 = load i32, ptr %12, align 4
  %180 = icmp ne i32 %179, 0
  br i1 %180, label %181, label %183

181:                                              ; preds = %143
  %182 = load i32, ptr %12, align 4
  store i32 %182, ptr %4, align 4
  br label %281

183:                                              ; preds = %143
  %184 = load ptr, ptr %10, align 8
  %185 = load i8, ptr %184, align 1
  %186 = zext i8 %185 to i64
  %187 = getelementptr inbounds [0 x i8], ptr @_pcre2_OP_lengths_8, i64 0, i64 %186
  %188 = load i8, ptr %187, align 1
  %189 = zext i8 %188 to i32
  %190 = load ptr, ptr %10, align 8
  %191 = sext i32 %189 to i64
  %192 = getelementptr inbounds i8, ptr %190, i64 %191
  store ptr %192, ptr %10, align 8
  br label %280

193:                                              ; preds = %52
  %194 = load ptr, ptr %10, align 8
  %195 = getelementptr inbounds i8, ptr %194, i64 1
  %196 = load i8, ptr %195, align 1
  %197 = zext i8 %196 to i32
  %198 = shl i32 %197, 8
  %199 = load ptr, ptr %10, align 8
  %200 = getelementptr inbounds i8, ptr %199, i64 2
  %201 = load i8, ptr %200, align 1
  %202 = zext i8 %201 to i32
  %203 = or i32 %198, %202
  %204 = zext i32 %203 to i64
  %205 = getelementptr inbounds %struct.pcre2_callout_enumerate_block_8, ptr %9, i32 0, i32 1
  store i64 %204, ptr %205, align 8
  %206 = load ptr, ptr %10, align 8
  %207 = getelementptr inbounds i8, ptr %206, i64 3
  %208 = load i8, ptr %207, align 1
  %209 = zext i8 %208 to i32
  %210 = shl i32 %209, 8
  %211 = load ptr, ptr %10, align 8
  %212 = getelementptr inbounds i8, ptr %211, i64 4
  %213 = load i8, ptr %212, align 1
  %214 = zext i8 %213 to i32
  %215 = or i32 %210, %214
  %216 = zext i32 %215 to i64
  %217 = getelementptr inbounds %struct.pcre2_callout_enumerate_block_8, ptr %9, i32 0, i32 2
  store i64 %216, ptr %217, align 8
  %218 = getelementptr inbounds %struct.pcre2_callout_enumerate_block_8, ptr %9, i32 0, i32 3
  store i32 0, ptr %218, align 8
  %219 = load ptr, ptr %10, align 8
  %220 = getelementptr inbounds i8, ptr %219, i64 7
  %221 = load i8, ptr %220, align 1
  %222 = zext i8 %221 to i32
  %223 = shl i32 %222, 8
  %224 = load ptr, ptr %10, align 8
  %225 = getelementptr inbounds i8, ptr %224, i64 8
  %226 = load i8, ptr %225, align 1
  %227 = zext i8 %226 to i32
  %228 = or i32 %223, %227
  %229 = zext i32 %228 to i64
  %230 = getelementptr inbounds %struct.pcre2_callout_enumerate_block_8, ptr %9, i32 0, i32 4
  store i64 %229, ptr %230, align 8
  %231 = load ptr, ptr %10, align 8
  %232 = getelementptr inbounds i8, ptr %231, i64 5
  %233 = load i8, ptr %232, align 1
  %234 = zext i8 %233 to i32
  %235 = shl i32 %234, 8
  %236 = load ptr, ptr %10, align 8
  %237 = getelementptr inbounds i8, ptr %236, i64 6
  %238 = load i8, ptr %237, align 1
  %239 = zext i8 %238 to i32
  %240 = or i32 %235, %239
  %241 = sub i32 %240, 9
  %242 = sub i32 %241, 2
  %243 = zext i32 %242 to i64
  %244 = getelementptr inbounds %struct.pcre2_callout_enumerate_block_8, ptr %9, i32 0, i32 5
  store i64 %243, ptr %244, align 8
  %245 = load ptr, ptr %10, align 8
  %246 = getelementptr inbounds i8, ptr %245, i64 9
  %247 = getelementptr inbounds i8, ptr %246, i64 1
  %248 = getelementptr inbounds %struct.pcre2_callout_enumerate_block_8, ptr %9, i32 0, i32 6
  store ptr %247, ptr %248, align 8
  %249 = load ptr, ptr %6, align 8
  %250 = load ptr, ptr %7, align 8
  %251 = call i32 %249(ptr noundef %9, ptr noundef %250)
  store i32 %251, ptr %12, align 4
  %252 = load i32, ptr %12, align 4
  %253 = icmp ne i32 %252, 0
  br i1 %253, label %254, label %256

254:                                              ; preds = %193
  %255 = load i32, ptr %12, align 4
  store i32 %255, ptr %4, align 4
  br label %281

256:                                              ; preds = %193
  %257 = load ptr, ptr %10, align 8
  %258 = getelementptr inbounds i8, ptr %257, i64 5
  %259 = load i8, ptr %258, align 1
  %260 = zext i8 %259 to i32
  %261 = shl i32 %260, 8
  %262 = load ptr, ptr %10, align 8
  %263 = getelementptr inbounds i8, ptr %262, i64 6
  %264 = load i8, ptr %263, align 1
  %265 = zext i8 %264 to i32
  %266 = or i32 %261, %265
  %267 = load ptr, ptr %10, align 8
  %268 = zext i32 %266 to i64
  %269 = getelementptr inbounds i8, ptr %267, i64 %268
  store ptr %269, ptr %10, align 8
  br label %280

270:                                              ; preds = %52
  %271 = load ptr, ptr %10, align 8
  %272 = load i8, ptr %271, align 1
  %273 = zext i8 %272 to i64
  %274 = getelementptr inbounds [0 x i8], ptr @_pcre2_OP_lengths_8, i64 0, i64 %273
  %275 = load i8, ptr %274, align 1
  %276 = zext i8 %275 to i32
  %277 = load ptr, ptr %10, align 8
  %278 = sext i32 %276 to i64
  %279 = getelementptr inbounds i8, ptr %277, i64 %278
  store ptr %279, ptr %10, align 8
  br label %280

280:                                              ; preds = %270, %256, %183, %128, %114, %113, %88
  br label %52

281:                                              ; preds = %254, %181, %56, %36, %29, %16
  %282 = load i32, ptr %4, align 4
  ret i32 %282
}