; Function Attrs: nounwind uwtable
define i32 @php_pcre2_callout_enumerate(ptr noundef %0, ptr nocapture noundef readonly %1, ptr noundef %2) local_unnamed_addr #0 {
  %4 = alloca %struct.pcre2_callout_enumerate_block_8, align 8
  %5 = icmp eq ptr %0, null
  br i1 %5, label %.loopexit, label %6

6:                                                ; preds = %3
  %7 = getelementptr inbounds i8, ptr %0, i64 88
  %8 = load i32, ptr %7, align 8
  %9 = and i32 %8, 524288
  %.not = icmp eq i32 %9, 0
  %10 = getelementptr inbounds i8, ptr %0, i64 80
  %11 = load i32, ptr %10, align 8
  %.not61 = icmp eq i32 %11, 1346589253
  br i1 %.not61, label %12, label %.loopexit

12:                                               ; preds = %6
  %13 = getelementptr inbounds i8, ptr %0, i64 96
  %14 = load i32, ptr %13, align 8
  %15 = and i32 %14, 1
  %16 = icmp eq i32 %15, 0
  br i1 %16, label %.loopexit, label %17

17:                                               ; preds = %12
  store i32 0, ptr %4, align 8
  %18 = getelementptr inbounds i8, ptr %0, i64 136
  %19 = getelementptr inbounds i8, ptr %0, i64 134
  %20 = load i16, ptr %19, align 2
  %21 = zext i16 %20 to i64
  %22 = getelementptr inbounds i8, ptr %0, i64 132
  %23 = load i16, ptr %22, align 4
  %24 = zext i16 %23 to i64
  %25 = mul nuw nsw i64 %24, %21
  %26 = getelementptr inbounds i8, ptr %18, i64 %25
  %27 = getelementptr inbounds i8, ptr %4, i64 8
  %28 = getelementptr inbounds i8, ptr %4, i64 16
  %29 = getelementptr inbounds i8, ptr %4, i64 24
  %30 = getelementptr inbounds i8, ptr %4, i64 32
  %31 = getelementptr inbounds i8, ptr %4, i64 40
  %32 = getelementptr inbounds i8, ptr %4, i64 48
  br label %33

33:                                               ; preds = %.backedge, %17
  %.055 = phi ptr [ %26, %17 ], [ %.055.be, %.backedge ]
  %34 = load i8, ptr %.055, align 1
  switch i8 %34, label %153 [
    i8 0, label %.loopexit
    i8 29, label %35
    i8 30, label %35
    i8 31, label %35
    i8 32, label %35
    i8 33, label %35
    i8 34, label %35
    i8 35, label %35
    i8 36, label %35
    i8 37, label %35
    i8 38, label %35
    i8 39, label %35
    i8 40, label %35
    i8 41, label %35
    i8 42, label %35
    i8 43, label %35
    i8 44, label %35
    i8 45, label %35
    i8 46, label %35
    i8 47, label %35
    i8 48, label %35
    i8 49, label %35
    i8 50, label %35
    i8 51, label %35
    i8 52, label %35
    i8 53, label %35
    i8 54, label %35
    i8 55, label %35
    i8 56, label %35
    i8 57, label %35
    i8 58, label %35
    i8 59, label %35
    i8 60, label %35
    i8 61, label %35
    i8 62, label %35
    i8 63, label %35
    i8 64, label %35
    i8 65, label %35
    i8 66, label %35
    i8 67, label %35
    i8 68, label %35
    i8 69, label %35
    i8 70, label %35
    i8 71, label %35
    i8 72, label %35
    i8 73, label %35
    i8 74, label %35
    i8 75, label %35
    i8 76, label %35
    i8 77, label %35
    i8 78, label %35
    i8 79, label %35
    i8 80, label %35
    i8 81, label %35
    i8 82, label %35
    i8 83, label %35
    i8 84, label %35
    i8 85, label %52
    i8 86, label %52
    i8 87, label %52
    i8 88, label %52
    i8 89, label %52
    i8 90, label %52
    i8 91, label %52
    i8 92, label %52
    i8 93, label %52
    i8 94, label %52
    i8 95, label %52
    i8 96, label %52
    i8 97, label %52
    i8 112, label %60
    i8 -102, label %70
    i8 -94, label %70
    i8 -100, label %70
    i8 -98, label %70
    i8 -96, label %70
    i8 118, label %80
    i8 119, label %108
  ]

35:                                               ; preds = %33, %33, %33, %33, %33, %33, %33, %33, %33, %33, %33, %33, %33, %33, %33, %33, %33, %33, %33, %33, %33, %33, %33, %33, %33, %33, %33, %33, %33, %33, %33, %33, %33, %33, %33, %33, %33, %33, %33, %33, %33, %33, %33, %33, %33, %33, %33, %33, %33, %33, %33, %33, %33, %33, %33, %33
  %36 = zext nneg i8 %34 to i64
  %37 = getelementptr inbounds [0 x i8], ptr @_pcre2_OP_lengths_8, i64 0, i64 %36
  %38 = load i8, ptr %37, align 1
  %39 = zext i8 %38 to i64
  %40 = getelementptr inbounds i8, ptr %.055, i64 %39
  br i1 %.not, label %.backedge, label %41

41:                                               ; preds = %35
  %42 = getelementptr inbounds i8, ptr %40, i64 -1
  %43 = load i8, ptr %42, align 1
  %44 = icmp ugt i8 %43, -65
  br i1 %44, label %45, label %.backedge

45:                                               ; preds = %41
  %46 = and i8 %43, 63
  %47 = zext nneg i8 %46 to i64
  %48 = getelementptr inbounds [0 x i8], ptr @_pcre2_utf8_table4, i64 0, i64 %47
  %49 = load i8, ptr %48, align 1
  %50 = zext i8 %49 to i64
  %51 = getelementptr inbounds i8, ptr %40, i64 %50
  br label %.backedge

52:                                               ; preds = %33, %33, %33, %33, %33, %33, %33, %33, %33, %33, %33, %33, %33
  %53 = zext nneg i8 %34 to i64
  %54 = getelementptr inbounds [0 x i8], ptr @_pcre2_OP_lengths_8, i64 0, i64 %53
  %55 = load i8, ptr %54, align 1
  %56 = zext i8 %55 to i64
  %57 = getelementptr inbounds i8, ptr %.055, i64 %56
  %58 = getelementptr inbounds i8, ptr %57, i64 -1
  %59 = load i8, ptr %58, align 1
  %.off = add i8 %59, -15
  %switch = icmp ult i8 %.off, 2
  %spec.select.idx = select i1 %switch, i64 2, i64 0
  %spec.select = getelementptr inbounds i8, ptr %57, i64 %spec.select.idx
  br label %.backedge

.backedge:                                        ; preds = %52, %35, %41, %45, %153, %145, %101, %70, %60
  %.055.be = phi ptr [ %158, %153 ], [ %152, %145 ], [ %107, %101 ], [ %79, %70 ], [ %69, %60 ], [ %51, %45 ], [ %40, %41 ], [ %40, %35 ], [ %spec.select, %52 ]
  br label %33

60:                                               ; preds = %33
  %61 = getelementptr inbounds i8, ptr %.055, i64 1
  %62 = load i8, ptr %61, align 1
  %63 = zext i8 %62 to i64
  %64 = shl nuw nsw i64 %63, 8
  %65 = getelementptr inbounds i8, ptr %.055, i64 2
  %66 = load i8, ptr %65, align 1
  %67 = zext i8 %66 to i64
  %68 = or disjoint i64 %64, %67
  %69 = getelementptr inbounds i8, ptr %.055, i64 %68
  br label %.backedge

70:                                               ; preds = %33, %33, %33, %33, %33
  %71 = zext i8 %34 to i64
  %72 = getelementptr inbounds [0 x i8], ptr @_pcre2_OP_lengths_8, i64 0, i64 %71
  %73 = load i8, ptr %72, align 1
  %74 = zext i8 %73 to i64
  %75 = getelementptr inbounds i8, ptr %.055, i64 1
  %76 = load i8, ptr %75, align 1
  %77 = zext i8 %76 to i64
  %78 = add nuw nsw i64 %77, %74
  %79 = getelementptr inbounds i8, ptr %.055, i64 %78
  br label %.backedge

80:                                               ; preds = %33
  %81 = getelementptr inbounds i8, ptr %.055, i64 1
  %82 = load i8, ptr %81, align 1
  %83 = zext i8 %82 to i64
  %84 = shl nuw nsw i64 %83, 8
  %85 = getelementptr inbounds i8, ptr %.055, i64 2
  %86 = load i8, ptr %85, align 1
  %87 = zext i8 %86 to i64
  %88 = or disjoint i64 %84, %87
  store i64 %88, ptr %27, align 8
  %89 = getelementptr inbounds i8, ptr %.055, i64 3
  %90 = load i8, ptr %89, align 1
  %91 = zext i8 %90 to i64
  %92 = shl nuw nsw i64 %91, 8
  %93 = getelementptr inbounds i8, ptr %.055, i64 4
  %94 = load i8, ptr %93, align 1
  %95 = zext i8 %94 to i64
  %96 = or disjoint i64 %92, %95
  store i64 %96, ptr %28, align 8
  %97 = getelementptr inbounds i8, ptr %.055, i64 5
  %98 = load i8, ptr %97, align 1
  %99 = zext i8 %98 to i32
  store i32 %99, ptr %29, align 8
  call void @llvm.memset.p0.i64(ptr noundef nonnull align 8 dereferenceable(24) %30, i8 0, i64 24, i1 false)
  %100 = call i32 %1(ptr noundef nonnull %4, ptr noundef %2) #3
  %.not63 = icmp eq i32 %100, 0
  br i1 %.not63, label %101, label %.loopexit

101:                                              ; preds = %80
  %102 = load i8, ptr %.055, align 1
  %103 = zext i8 %102 to i64
  %104 = getelementptr inbounds [0 x i8], ptr @_pcre2_OP_lengths_8, i64 0, i64 %103
  %105 = load i8, ptr %104, align 1
  %106 = zext i8 %105 to i64
  %107 = getelementptr inbounds i8, ptr %.055, i64 %106
  br label %.backedge

108:                                              ; preds = %33
  %109 = getelementptr inbounds i8, ptr %.055, i64 1
  %110 = load i8, ptr %109, align 1
  %111 = zext i8 %110 to i64
  %112 = shl nuw nsw i64 %111, 8
  %113 = getelementptr inbounds i8, ptr %.055, i64 2
  %114 = load i8, ptr %113, align 1
  %115 = zext i8 %114 to i64
  %116 = or disjoint i64 %112, %115
  store i64 %116, ptr %27, align 8
  %117 = getelementptr inbounds i8, ptr %.055, i64 3
  %118 = load i8, ptr %117, align 1
  %119 = zext i8 %118 to i64
  %120 = shl nuw nsw i64 %119, 8
  %121 = getelementptr inbounds i8, ptr %.055, i64 4
  %122 = load i8, ptr %121, align 1
  %123 = zext i8 %122 to i64
  %124 = or disjoint i64 %120, %123
  store i64 %124, ptr %28, align 8
  store i32 0, ptr %29, align 8
  %125 = getelementptr inbounds i8, ptr %.055, i64 7
  %126 = load i8, ptr %125, align 1
  %127 = zext i8 %126 to i64
  %128 = shl nuw nsw i64 %127, 8
  %129 = getelementptr inbounds i8, ptr %.055, i64 8
  %130 = load i8, ptr %129, align 1
  %131 = zext i8 %130 to i64
  %132 = or disjoint i64 %128, %131
  store i64 %132, ptr %30, align 8
  %133 = getelementptr inbounds i8, ptr %.055, i64 5
  %134 = load i8, ptr %133, align 1
  %135 = zext i8 %134 to i64
  %136 = shl nuw nsw i64 %135, 8
  %137 = getelementptr inbounds i8, ptr %.055, i64 6
  %138 = load i8, ptr %137, align 1
  %139 = zext i8 %138 to i64
  %140 = or disjoint i64 %136, %139
  %141 = add nuw nsw i64 %140, 4294967285
  %142 = and i64 %141, 4294967295
  store i64 %142, ptr %31, align 8
  %143 = getelementptr inbounds i8, ptr %.055, i64 10
  store ptr %143, ptr %32, align 8
  %144 = call i32 %1(ptr noundef nonnull %4, ptr noundef %2) #3
  %.not62 = icmp eq i32 %144, 0
  br i1 %.not62, label %145, label %.loopexit

145:                                              ; preds = %108
  %146 = load i8, ptr %133, align 1
  %147 = zext i8 %146 to i64
  %148 = shl nuw nsw i64 %147, 8
  %149 = load i8, ptr %137, align 1
  %150 = zext i8 %149 to i64
  %151 = or disjoint i64 %148, %150
  %152 = getelementptr inbounds i8, ptr %.055, i64 %151
  br label %.backedge

153:                                              ; preds = %33
  %154 = zext i8 %34 to i64
  %155 = getelementptr inbounds [0 x i8], ptr @_pcre2_OP_lengths_8, i64 0, i64 %154
  %156 = load i8, ptr %155, align 1
  %157 = zext i8 %156 to i64
  %158 = getelementptr inbounds i8, ptr %.055, i64 %157
  br label %.backedge

.loopexit:                                        ; preds = %108, %80, %33, %12, %6, %3
  %.0 = phi i32 [ -51, %3 ], [ -31, %6 ], [ -32, %12 ], [ %144, %108 ], [ %100, %80 ], [ 0, %33 ]
  ret i32 %.0
}